target datalayout = "e-m:e-p270:32:32-p271:32:32-p272:64:64-i64:64-i128:128-f80:128-n8:16:32:64-S128"
target triple = "x86_64-pc-linux-gnu"

@_ZN4leanL4zeroE = internal constant i32 0, align 4

; Function Attrs: mustprogress nounwind uwtable
define hidden void @_ZN4lean7mpn_subEPKjmS1_mPjS2_(ptr noundef %0, i64 noundef %1, ptr noundef %2, i64 noundef %3, ptr noundef %4, ptr noundef %5) #0 {
  %7 = alloca ptr, align 8
  %8 = alloca i64, align 8
  %9 = alloca ptr, align 8
  %10 = alloca i64, align 8
  %11 = alloca ptr, align 8
  %12 = alloca ptr, align 8
  %13 = alloca i64, align 8
  %14 = alloca ptr, align 8
  %15 = alloca i32, align 4
  %16 = alloca i8, align 1
  %17 = alloca i8, align 1
  %18 = alloca i64, align 8
  %19 = alloca ptr, align 8
  %20 = alloca ptr, align 8
  store ptr %0, ptr %7, align 8, !tbaa !3
  store i64 %1, ptr %8, align 8, !tbaa !8
  store ptr %2, ptr %9, align 8, !tbaa !3
  store i64 %3, ptr %10, align 8, !tbaa !8
  store ptr %4, ptr %11, align 8, !tbaa !3
  store ptr %5, ptr %12, align 8, !tbaa !3
  call void @llvm.lifetime.start.p0(i64 8, ptr %13) #12
  %21 = load i64, ptr %8, align 8, !tbaa !8
  %22 = load i64, ptr %10, align 8, !tbaa !8
  %23 = icmp ugt i64 %21, %22
  br i1 %23, label %24, label %26

24:                                               ; preds = %6
  %25 = load i64, ptr %8, align 8, !tbaa !8
  br label %28

26:                                               ; preds = %6
  %27 = load i64, ptr %10, align 8, !tbaa !8
  br label %28

28:                                               ; preds = %26, %24
  %29 = phi i64 [ %25, %24 ], [ %27, %26 ]
  store i64 %29, ptr %13, align 8, !tbaa !8
  call void @llvm.lifetime.start.p0(i64 8, ptr %14) #12
  %30 = load ptr, ptr %12, align 8, !tbaa !3
  store ptr %30, ptr %14, align 8, !tbaa !3
  %31 = load ptr, ptr %14, align 8, !tbaa !3
  store i32 0, ptr %31, align 4, !tbaa !10
  call void @llvm.lifetime.start.p0(i64 4, ptr %15) #12
  call void @llvm.lifetime.start.p0(i64 1, ptr %16) #12
  call void @llvm.lifetime.start.p0(i64 1, ptr %17) #12
  call void @llvm.lifetime.start.p0(i64 8, ptr %18) #12
  store i64 0, ptr %18, align 8, !tbaa !8
  br label %32

32:                                               ; preds = %90, %28
  %33 = load i64, ptr %18, align 8, !tbaa !8
  %34 = load i64, ptr %13, align 8, !tbaa !8
  %35 = icmp ult i64 %33, %34
  br i1 %35, label %37, label %36

36:                                               ; preds = %32
  call void @llvm.lifetime.end.p0(i64 8, ptr %18) #12
  br label %93

37:                                               ; preds = %32
  call void @llvm.lifetime.start.p0(i64 8, ptr %19) #12
  %38 = load i64, ptr %18, align 8, !tbaa !8
  %39 = load i64, ptr %8, align 8, !tbaa !8
  %40 = icmp ult i64 %38, %39
  br i1 %40, label %41, label %45

41:                                               ; preds = %37
  %42 = load ptr, ptr %7, align 8, !tbaa !3
  %43 = load i64, ptr %18, align 8, !tbaa !8
  %44 = getelementptr inbounds nuw i32, ptr %42, i64 %43
  br label %46

45:                                               ; preds = %37
  br label %46

46:                                               ; preds = %45, %41
  %47 = phi ptr [ %44, %41 ], [ @_ZN4leanL4zeroE, %45 ]
  store ptr %47, ptr %19, align 8, !tbaa !3
  call void @llvm.lifetime.start.p0(i64 8, ptr %20) #12
  %48 = load i64, ptr %18, align 8, !tbaa !8
  %49 = load i64, ptr %10, align 8, !tbaa !8
  %50 = icmp ult i64 %48, %49
  br i1 %50, label %51, label %55

51:                                               ; preds = %46
  %52 = load ptr, ptr %9, align 8, !tbaa !3
  %53 = load i64, ptr %18, align 8, !tbaa !8
  %54 = getelementptr inbounds nuw i32, ptr %52, i64 %53
  br label %56

55:                                               ; preds = %46
  br label %56

56:                                               ; preds = %55, %51
  %57 = phi ptr [ %54, %51 ], [ @_ZN4leanL4zeroE, %55 ]
  store ptr %57, ptr %20, align 8, !tbaa !3
  %58 = load ptr, ptr %19, align 8, !tbaa !3
  %59 = load i32, ptr %58, align 4, !tbaa !10
  %60 = load ptr, ptr %20, align 8, !tbaa !3
  %61 = load i32, ptr %60, align 4, !tbaa !10
  %62 = sub i32 %59, %61
  store i32 %62, ptr %15, align 4, !tbaa !10
  %63 = load i32, ptr %15, align 4, !tbaa !10
  %64 = load ptr, ptr %19, align 8, !tbaa !3
  %65 = load i32, ptr %64, align 4, !tbaa !10
  %66 = icmp ugt i32 %63, %65
  %67 = zext i1 %66 to i8
  store i8 %67, ptr %16, align 1, !tbaa !16
  %68 = load i32, ptr %15, align 4, !tbaa !10
  %69 = load ptr, ptr %14, align 8, !tbaa !3
  %70 = load i32, ptr %69, align 4, !tbaa !10
  %71 = sub i32 %68, %70
  %72 = load ptr, ptr %11, align 8, !tbaa !3
  %73 = load i64, ptr %18, align 8, !tbaa !8
  %74 = getelementptr inbounds nuw i32, ptr %72, i64 %73
  store i32 %71, ptr %74, align 4, !tbaa !10
  %75 = load ptr, ptr %11, align 8, !tbaa !3
  %76 = load i64, ptr %18, align 8, !tbaa !8
  %77 = getelementptr inbounds nuw i32, ptr %75, i64 %76
  %78 = load i32, ptr %77, align 4, !tbaa !10
  %79 = load i32, ptr %15, align 4, !tbaa !10
  %80 = icmp ugt i32 %78, %79
  %81 = zext i1 %80 to i8
  store i8 %81, ptr %17, align 1, !tbaa !16
  %82 = load i8, ptr %16, align 1, !tbaa !16, !range !18, !noundef !19
  %83 = trunc i8 %82 to i1
  %84 = zext i1 %83 to i32
  %85 = load i8, ptr %17, align 1, !tbaa !16, !range !18, !noundef !19
  %86 = trunc i8 %85 to i1
  %87 = zext i1 %86 to i32
  %88 = or i32 %84, %87
  %89 = load ptr, ptr %14, align 8, !tbaa !3
  store i32 %88, ptr %89, align 4, !tbaa !10
  call void @llvm.lifetime.end.p0(i64 8, ptr %20) #12
  call void @llvm.lifetime.end.p0(i64 8, ptr %19) #12
  br label %90

90:                                               ; preds = %56
  %91 = load i64, ptr %18, align 8, !tbaa !8
  %92 = add i64 %91, 1
  store i64 %92, ptr %18, align 8, !tbaa !8
  br label %32, !llvm.loop !22

93:                                               ; preds = %36
  call void @llvm.lifetime.end.p0(i64 1, ptr %17) #12
  call void @llvm.lifetime.end.p0(i64 1, ptr %16) #12
  call void @llvm.lifetime.end.p0(i64 4, ptr %15) #12
  call void @llvm.lifetime.end.p0(i64 8, ptr %14) #12
  call void @llvm.lifetime.end.p0(i64 8, ptr %13) #12
  ret void
}