; Function Attrs: mustprogress nofree norecurse nosync nounwind memory(read, argmem: readwrite, inaccessiblemem: none) uwtable
define hidden void @_ZN4lean7mpn_subEPKjmS1_mPjS2_(ptr noundef readonly captures(none) %0, i64 noundef %1, ptr noundef readonly captures(none) %2, i64 noundef %3, ptr noundef writeonly captures(none) %4, ptr noundef writeonly captures(none) initializes((0, 4)) %5) local_unnamed_addr #2 {
  %7 = tail call i64 @llvm.umax.i64(i64 %1, i64 %3)
  store i32 0, ptr %5, align 4, !tbaa !3
  %.not = icmp eq i64 %7, 0
  br i1 %.not, label %._crit_edge, label %.lr.ph

._crit_edge:                                      ; preds = %.lr.ph, %6
  ret void

.lr.ph:                                           ; preds = %6, %.lr.ph
  %8 = phi i32 [ %23, %.lr.ph ], [ 0, %6 ]
  %.030 = phi i64 [ %24, %.lr.ph ], [ 0, %6 ]
  %9 = icmp ult i64 %.030, %1
  %10 = getelementptr inbounds nuw i32, ptr %0, i64 %.030
  %11 = select i1 %9, ptr %10, ptr @_ZN4leanL4zeroE
  %12 = icmp ult i64 %.030, %3
  %13 = getelementptr inbounds nuw i32, ptr %2, i64 %.030
  %14 = select i1 %12, ptr %13, ptr @_ZN4leanL4zeroE
  %15 = load i32, ptr %11, align 4, !tbaa !3
  %16 = load i32, ptr %14, align 4, !tbaa !3
  %17 = sub i32 %15, %16
  %18 = icmp ugt i32 %16, %15
  %19 = sub i32 %17, %8
  %20 = getelementptr inbounds nuw i32, ptr %4, i64 %.030
  store i32 %19, ptr %20, align 4, !tbaa !3
  %21 = icmp ugt i32 %8, %17
  %22 = or i1 %18, %21
  %23 = zext i1 %22 to i32
  store i32 %23, ptr %5, align 4, !tbaa !3
  %24 = add nuw i64 %.030, 1
  %exitcond.not = icmp eq i64 %24, %7
  br i1 %exitcond.not, label %._crit_edge, label %.lr.ph, !llvm.loop !13
}